; Function Attrs: mustprogress nofree nounwind willreturn memory(read, inaccessiblemem: none) uwtable
define dso_local noundef zeroext i1 @_ZNK26cmCTestBinPackerAllocationneERKS_(ptr noundef nonnull readonly align 8 captures(none) dereferenceable(48) %0, ptr noundef nonnull readonly align 8 captures(none) dereferenceable(48) %1) local_unnamed_addr #0 align 2 personality ptr @__gxx_personality_v0 {
  %3 = load i64, ptr %0, align 8, !tbaa !4
  %4 = load i64, ptr %1, align 8, !tbaa !4
  %5 = icmp eq i64 %3, %4
  br i1 %5, label %6, label %_ZNK26cmCTestBinPackerAllocationeqERKS_.exit

6:                                                ; preds = %2
  %7 = getelementptr inbounds nuw i8, ptr %0, i64 8
  %8 = load i32, ptr %7, align 8, !tbaa !14
  %9 = getelementptr inbounds nuw i8, ptr %1, i64 8
  %10 = load i32, ptr %9, align 8, !tbaa !14
  %11 = icmp eq i32 %8, %10
  br i1 %11, label %12, label %_ZNK26cmCTestBinPackerAllocationeqERKS_.exit

12:                                               ; preds = %6
  %13 = getelementptr inbounds nuw i8, ptr %0, i64 16
  %14 = getelementptr inbounds nuw i8, ptr %1, i64 16
  %15 = getelementptr inbounds nuw i8, ptr %0, i64 24
  %16 = load i64, ptr %15, align 8, !tbaa !15
  %17 = getelementptr inbounds nuw i8, ptr %1, i64 24
  %18 = load i64, ptr %17, align 8, !tbaa !15
  %19 = icmp eq i64 %16, %18
  br i1 %19, label %20, label %_ZNK26cmCTestBinPackerAllocationeqERKS_.exit

20:                                               ; preds = %12
  %21 = icmp eq i64 %16, 0
  br i1 %21, label %_ZNK26cmCTestBinPackerAllocationeqERKS_.exit, label %22

22:                                               ; preds = %20
  %23 = load ptr, ptr %14, align 8, !tbaa !16
  %24 = load ptr, ptr %13, align 8, !tbaa !16
  %bcmp.i.i = tail call i32 @bcmp(ptr %24, ptr %23, i64 %16)
  %25 = icmp ne i32 %bcmp.i.i, 0
  br label %_ZNK26cmCTestBinPackerAllocationeqERKS_.exit

_ZNK26cmCTestBinPackerAllocationeqERKS_.exit:     ; preds = %2, %6, %12, %20, %22
  %26 = phi i1 [ true, %6 ], [ true, %2 ], [ true, %12 ], [ %25, %22 ], [ false, %20 ]
  ret i1 %26
}